; Function Attrs: nounwind uwtable
define internal range(i32 -1, 2) i32 @_sort_pids_by_name(ptr noundef readonly captures(none) %0, ptr noundef readonly captures(none) %1) #0 {
  %3 = load ptr, ptr %0, align 8
  %4 = load ptr, ptr %3, align 8
  %.not = icmp eq ptr %4, null
  br i1 %.not, label %12, label %5

5:                                                ; preds = %2
  %6 = load ptr, ptr %1, align 8
  %7 = load ptr, ptr %6, align 8
  %.not11 = icmp eq ptr %7, null
  br i1 %.not11, label %12, label %8

8:                                                ; preds = %5
  %9 = tail call i32 @xstrcmp(ptr noundef nonnull %4, ptr noundef nonnull %7) #11
  %10 = icmp sgt i32 %9, 0
  br i1 %10, label %12, label %11

11:                                               ; preds = %8
  %.not12 = icmp ne i32 %9, 0
  %. = sext i1 %.not12 to i32
  br label %12

12:                                               ; preds = %11, %8, %2, %5
  %.0 = phi i32 [ 0, %5 ], [ 0, %2 ], [ 1, %8 ], [ %., %11 ]
  ret i32 %.0
}